target datalayout = "e-m:e-p270:32:32-p271:32:32-p272:64:64-i64:64-i128:128-f80:128-n8:16:32:64-S128"
target triple = "x86_64-pc-linux-gnu"

%struct._rio = type { ptr, ptr, ptr, ptr, ptr, i64, i64, i64, i64, %union.anon }
%union.anon = type { %struct.anon.2 }
%struct.anon.2 = type { ptr, i64, ptr, i64, i64 }

@.str.11 = private unnamed_addr constant [12 x i8] c"enclen < 32\00", align 1
@.str.12 = private unnamed_addr constant [6 x i8] c"rdb.c\00", align 1

; Function Attrs: inlinehint nounwind uwtable
define internal i64 @rioWrite(ptr noundef %0, ptr noundef %1, i64 noundef %2) #6 {
  %4 = alloca i64, align 8
  %5 = alloca ptr, align 8
  %6 = alloca ptr, align 8
  %7 = alloca i64, align 8
  %8 = alloca i64, align 8
  %9 = alloca i32, align 4
  store ptr %0, ptr %5, align 8, !tbaa !53
  store ptr %1, ptr %6, align 8, !tbaa !55
  store i64 %2, ptr %7, align 8, !tbaa !56
  %10 = load ptr, ptr %5, align 8, !tbaa !53
  %11 = getelementptr inbounds nuw %struct._rio, ptr %10, i32 0, i32 6
  %12 = load i64, ptr %11, align 8, !tbaa !57
  %13 = and i64 %12, 6
  %14 = icmp ne i64 %13, 0
  br i1 %14, label %15, label %16

15:                                               ; preds = %3
  store i64 0, ptr %4, align 8
  br label %80

16:                                               ; preds = %3
  br label %17

17:                                               ; preds = %78, %16
  %18 = load i64, ptr %7, align 8, !tbaa !56
  %19 = icmp ne i64 %18, 0
  br i1 %19, label %20, label %79

20:                                               ; preds = %17
  call void @llvm.lifetime.start.p0(i64 8, ptr %8) #15
  %21 = load ptr, ptr %5, align 8, !tbaa !53
  %22 = getelementptr inbounds nuw %struct._rio, ptr %21, i32 0, i32 8
  %23 = load i64, ptr %22, align 8, !tbaa !59
  %24 = icmp ne i64 %23, 0
  br i1 %24, label %25, label %35

25:                                               ; preds = %20
  %26 = load ptr, ptr %5, align 8, !tbaa !53
  %27 = getelementptr inbounds nuw %struct._rio, ptr %26, i32 0, i32 8
  %28 = load i64, ptr %27, align 8, !tbaa !59
  %29 = load i64, ptr %7, align 8, !tbaa !56
  %30 = icmp ult i64 %28, %29
  br i1 %30, label %31, label %35

31:                                               ; preds = %25
  %32 = load ptr, ptr %5, align 8, !tbaa !53
  %33 = getelementptr inbounds nuw %struct._rio, ptr %32, i32 0, i32 8
  %34 = load i64, ptr %33, align 8, !tbaa !59
  br label %37

35:                                               ; preds = %25, %20
  %36 = load i64, ptr %7, align 8, !tbaa !56
  br label %37

37:                                               ; preds = %35, %31
  %38 = phi i64 [ %34, %31 ], [ %36, %35 ]
  store i64 %38, ptr %8, align 8, !tbaa !56
  %39 = load ptr, ptr %5, align 8, !tbaa !53
  %40 = getelementptr inbounds nuw %struct._rio, ptr %39, i32 0, i32 4
  %41 = load ptr, ptr %40, align 8, !tbaa !60
  %42 = icmp ne ptr %41, null
  br i1 %42, label %43, label %50

43:                                               ; preds = %37
  %44 = load ptr, ptr %5, align 8, !tbaa !53
  %45 = getelementptr inbounds nuw %struct._rio, ptr %44, i32 0, i32 4
  %46 = load ptr, ptr %45, align 8, !tbaa !60
  %47 = load ptr, ptr %5, align 8, !tbaa !53
  %48 = load ptr, ptr %6, align 8, !tbaa !55
  %49 = load i64, ptr %8, align 8, !tbaa !56
  call void %46(ptr noundef %47, ptr noundef %48, i64 noundef %49)
  br label %50

50:                                               ; preds = %43, %37
  %51 = load ptr, ptr %5, align 8, !tbaa !53
  %52 = getelementptr inbounds nuw %struct._rio, ptr %51, i32 0, i32 1
  %53 = load ptr, ptr %52, align 8, !tbaa !61
  %54 = load ptr, ptr %5, align 8, !tbaa !53
  %55 = load ptr, ptr %6, align 8, !tbaa !55
  %56 = load i64, ptr %8, align 8, !tbaa !56
  %57 = call i64 %53(ptr noundef %54, ptr noundef %55, i64 noundef %56)
  %58 = icmp eq i64 %57, 0
  br i1 %58, label %59, label %64

59:                                               ; preds = %50
  %60 = load ptr, ptr %5, align 8, !tbaa !53
  %61 = getelementptr inbounds nuw %struct._rio, ptr %60, i32 0, i32 6
  %62 = load i64, ptr %61, align 8, !tbaa !57
  %63 = or i64 %62, 2
  store i64 %63, ptr %61, align 8, !tbaa !57
  store i64 0, ptr %4, align 8
  store i32 1, ptr %9, align 4
  br label %76

64:                                               ; preds = %50
  %65 = load ptr, ptr %6, align 8, !tbaa !55
  %66 = load i64, ptr %8, align 8, !tbaa !56
  %67 = getelementptr inbounds nuw i8, ptr %65, i64 %66
  store ptr %67, ptr %6, align 8, !tbaa !55
  %68 = load i64, ptr %8, align 8, !tbaa !56
  %69 = load i64, ptr %7, align 8, !tbaa !56
  %70 = sub i64 %69, %68
  store i64 %70, ptr %7, align 8, !tbaa !56
  %71 = load i64, ptr %8, align 8, !tbaa !56
  %72 = load ptr, ptr %5, align 8, !tbaa !53
  %73 = getelementptr inbounds nuw %struct._rio, ptr %72, i32 0, i32 7
  %74 = load i64, ptr %73, align 8, !tbaa !62
  %75 = add i64 %74, %71
  store i64 %75, ptr %73, align 8, !tbaa !62
  store i32 0, ptr %9, align 4
  br label %76

76:                                               ; preds = %64, %59
  call void @llvm.lifetime.end.p0(i64 8, ptr %8) #15
  %77 = load i32, ptr %9, align 4
  switch i32 %77, label %82 [
    i32 0, label %78
    i32 1, label %80
  ]

78:                                               ; preds = %76
  br label %17, !llvm.loop !63

79:                                               ; preds = %17
  store i64 1, ptr %4, align 8
  br label %80

80:                                               ; preds = %79, %76, %15
  %81 = load i64, ptr %4, align 8
  ret i64 %81

82:                                               ; preds = %76
  unreachable
}

; Function Attrs: nounwind uwtable
define dso_local i64 @rdbWriteRaw(ptr noundef %0, ptr noundef %1, i64 noundef %2) #0 {
  %4 = alloca i64, align 8
  %5 = alloca ptr, align 8
  %6 = alloca ptr, align 8
  %7 = alloca i64, align 8
  store ptr %0, ptr %5, align 8, !tbaa !53
  store ptr %1, ptr %6, align 8, !tbaa !55
  store i64 %2, ptr %7, align 8, !tbaa !56
  %8 = load ptr, ptr %5, align 8, !tbaa !53
  %9 = icmp ne ptr %8, null
  br i1 %9, label %10, label %17

10:                                               ; preds = %3
  %11 = load ptr, ptr %5, align 8, !tbaa !53
  %12 = load ptr, ptr %6, align 8, !tbaa !55
  %13 = load i64, ptr %7, align 8, !tbaa !56
  %14 = call i64 @rioWrite(ptr noundef %11, ptr noundef %12, i64 noundef %13)
  %15 = icmp eq i64 %14, 0
  br i1 %15, label %16, label %17

16:                                               ; preds = %10
  store i64 -1, ptr %4, align 8
  br label %19

17:                                               ; preds = %10, %3
  %18 = load i64, ptr %7, align 8, !tbaa !56
  store i64 %18, ptr %4, align 8
  br label %19

19:                                               ; preds = %17, %16
  %20 = load i64, ptr %4, align 8
  ret i64 %20
}

; Function Attrs: nounwind uwtable
define dso_local i32 @rdbEncodeInteger(i64 noundef %0, ptr noundef %1) #0 {
  %3 = alloca i32, align 4
  %4 = alloca i64, align 8
  %5 = alloca ptr, align 8
  store i64 %0, ptr %4, align 8, !tbaa !68
  store ptr %1, ptr %5, align 8, !tbaa !9
  %6 = load i64, ptr %4, align 8, !tbaa !68
  %7 = icmp sge i64 %6, -128
  br i1 %7, label %8, label %19

8:                                                ; preds = %2
  %9 = load i64, ptr %4, align 8, !tbaa !68
  %10 = icmp sle i64 %9, 127
  br i1 %10, label %11, label %19

11:                                               ; preds = %8
  %12 = load ptr, ptr %5, align 8, !tbaa !9
  %13 = getelementptr inbounds i8, ptr %12, i64 0
  store i8 -64, ptr %13, align 1, !tbaa !65
  %14 = load i64, ptr %4, align 8, !tbaa !68
  %15 = and i64 %14, 255
  %16 = trunc i64 %15 to i8
  %17 = load ptr, ptr %5, align 8, !tbaa !9
  %18 = getelementptr inbounds i8, ptr %17, i64 1
  store i8 %16, ptr %18, align 1, !tbaa !65
  store i32 2, ptr %3, align 4
  br label %72

19:                                               ; preds = %8, %2
  %20 = load i64, ptr %4, align 8, !tbaa !68
  %21 = icmp sge i64 %20, -32768
  br i1 %21, label %22, label %39

22:                                               ; preds = %19
  %23 = load i64, ptr %4, align 8, !tbaa !68
  %24 = icmp sle i64 %23, 32767
  br i1 %24, label %25, label %39

25:                                               ; preds = %22
  %26 = load ptr, ptr %5, align 8, !tbaa !9
  %27 = getelementptr inbounds i8, ptr %26, i64 0
  store i8 -63, ptr %27, align 1, !tbaa !65
  %28 = load i64, ptr %4, align 8, !tbaa !68
  %29 = and i64 %28, 255
  %30 = trunc i64 %29 to i8
  %31 = load ptr, ptr %5, align 8, !tbaa !9
  %32 = getelementptr inbounds i8, ptr %31, i64 1
  store i8 %30, ptr %32, align 1, !tbaa !65
  %33 = load i64, ptr %4, align 8, !tbaa !68
  %34 = ashr i64 %33, 8
  %35 = and i64 %34, 255
  %36 = trunc i64 %35 to i8
  %37 = load ptr, ptr %5, align 8, !tbaa !9
  %38 = getelementptr inbounds i8, ptr %37, i64 2
  store i8 %36, ptr %38, align 1, !tbaa !65
  store i32 3, ptr %3, align 4
  br label %72

39:                                               ; preds = %22, %19
  %40 = load i64, ptr %4, align 8, !tbaa !68
  %41 = icmp sge i64 %40, -2147483648
  br i1 %41, label %42, label %71

42:                                               ; preds = %39
  %43 = load i64, ptr %4, align 8, !tbaa !68
  %44 = icmp sle i64 %43, 2147483647
  br i1 %44, label %45, label %71

45:                                               ; preds = %42
  %46 = load ptr, ptr %5, align 8, !tbaa !9
  %47 = getelementptr inbounds i8, ptr %46, i64 0
  store i8 -62, ptr %47, align 1, !tbaa !65
  %48 = load i64, ptr %4, align 8, !tbaa !68
  %49 = and i64 %48, 255
  %50 = trunc i64 %49 to i8
  %51 = load ptr, ptr %5, align 8, !tbaa !9
  %52 = getelementptr inbounds i8, ptr %51, i64 1
  store i8 %50, ptr %52, align 1, !tbaa !65
  %53 = load i64, ptr %4, align 8, !tbaa !68
  %54 = ashr i64 %53, 8
  %55 = and i64 %54, 255
  %56 = trunc i64 %55 to i8
  %57 = load ptr, ptr %5, align 8, !tbaa !9
  %58 = getelementptr inbounds i8, ptr %57, i64 2
  store i8 %56, ptr %58, align 1, !tbaa !65
  %59 = load i64, ptr %4, align 8, !tbaa !68
  %60 = ashr i64 %59, 16
  %61 = and i64 %60, 255
  %62 = trunc i64 %61 to i8
  %63 = load ptr, ptr %5, align 8, !tbaa !9
  %64 = getelementptr inbounds i8, ptr %63, i64 3
  store i8 %62, ptr %64, align 1, !tbaa !65
  %65 = load i64, ptr %4, align 8, !tbaa !68
  %66 = ashr i64 %65, 24
  %67 = and i64 %66, 255
  %68 = trunc i64 %67 to i8
  %69 = load ptr, ptr %5, align 8, !tbaa !9
  %70 = getelementptr inbounds i8, ptr %69, i64 4
  store i8 %68, ptr %70, align 1, !tbaa !65
  store i32 5, ptr %3, align 4
  br label %72

71:                                               ; preds = %42, %39
  store i32 0, ptr %3, align 4
  br label %72

72:                                               ; preds = %71, %45, %25, %11
  %73 = load i32, ptr %3, align 4
  ret i32 %73
}

; Function Attrs: nounwind uwtable
define dso_local i64 @rdbSaveLongLongAsStringObject(ptr noundef %0, i64 noundef %1) #0 {
  %3 = alloca i64, align 8
  %4 = alloca ptr, align 8
  %5 = alloca i64, align 8
  %6 = alloca [32 x i8], align 16
  %7 = alloca i64, align 8
  %8 = alloca i64, align 8
  %9 = alloca i32, align 4
  %10 = alloca i32, align 4
  store ptr %0, ptr %4, align 8, !tbaa !53
  store i64 %1, ptr %5, align 8, !tbaa !68
  call void @llvm.lifetime.start.p0(i64 32, ptr %6) #15
  call void @llvm.lifetime.start.p0(i64 8, ptr %7) #15
  call void @llvm.lifetime.start.p0(i64 8, ptr %8) #15
  store i64 0, ptr %8, align 8, !tbaa !56
  call void @llvm.lifetime.start.p0(i64 4, ptr %9) #15
  %11 = load i64, ptr %5, align 8, !tbaa !68
  %12 = getelementptr inbounds [32 x i8], ptr %6, i64 0, i64 0
  %13 = call i32 @rdbEncodeInteger(i64 noundef %11, ptr noundef %12)
  store i32 %13, ptr %9, align 4, !tbaa !5
  %14 = load i32, ptr %9, align 4, !tbaa !5
  %15 = icmp sgt i32 %14, 0
  br i1 %15, label %16, label %22

16:                                               ; preds = %2
  %17 = load ptr, ptr %4, align 8, !tbaa !53
  %18 = getelementptr inbounds [32 x i8], ptr %6, i64 0, i64 0
  %19 = load i32, ptr %9, align 4, !tbaa !5
  %20 = sext i32 %19 to i64
  %21 = call i64 @rdbWriteRaw(ptr noundef %17, ptr noundef %18, i64 noundef %20)
  store i64 %21, ptr %3, align 8
  store i32 1, ptr %10, align 4
  br label %62

22:                                               ; preds = %2
  %23 = getelementptr inbounds [32 x i8], ptr %6, i64 0, i64 0
  %24 = load i64, ptr %5, align 8, !tbaa !68
  %25 = call i32 @ll2string(ptr noundef %23, i64 noundef 32, i64 noundef %24)
  store i32 %25, ptr %9, align 4, !tbaa !5
  %26 = load i32, ptr %9, align 4, !tbaa !5
  %27 = icmp slt i32 %26, 32
  %28 = xor i1 %27, true
  %29 = xor i1 %28, true
  %30 = zext i1 %29 to i32
  %31 = sext i32 %30 to i64
  %32 = call i64 @llvm.expect.i64(i64 %31, i64 1)
  %33 = icmp ne i64 %32, 0
  br i1 %33, label %34, label %35

34:                                               ; preds = %22
  br label %37

35:                                               ; preds = %22
  call void @_serverAssert(ptr noundef @.str.11, ptr noundef @.str.12, i32 noundef 481)
  call void @abort() #16
  unreachable

36:                                               ; No predecessors!
  br label %37

37:                                               ; preds = %36, %34
  %38 = load ptr, ptr %4, align 8, !tbaa !53
  %39 = load i32, ptr %9, align 4, !tbaa !5
  %40 = sext i32 %39 to i64
  %41 = call i32 @rdbSaveLen(ptr noundef %38, i64 noundef %40)
  %42 = sext i32 %41 to i64
  store i64 %42, ptr %7, align 8, !tbaa !56
  %43 = icmp eq i64 %42, -1
  br i1 %43, label %44, label %45

44:                                               ; preds = %37
  store i64 -1, ptr %3, align 8
  store i32 1, ptr %10, align 4
  br label %62

45:                                               ; preds = %37
  %46 = load i64, ptr %7, align 8, !tbaa !56
  %47 = load i64, ptr %8, align 8, !tbaa !56
  %48 = add nsw i64 %47, %46
  store i64 %48, ptr %8, align 8, !tbaa !56
  %49 = load ptr, ptr %4, align 8, !tbaa !53
  %50 = getelementptr inbounds [32 x i8], ptr %6, i64 0, i64 0
  %51 = load i32, ptr %9, align 4, !tbaa !5
  %52 = sext i32 %51 to i64
  %53 = call i64 @rdbWriteRaw(ptr noundef %49, ptr noundef %50, i64 noundef %52)
  store i64 %53, ptr %7, align 8, !tbaa !56
  %54 = icmp eq i64 %53, -1
  br i1 %54, label %55, label %56

55:                                               ; preds = %45
  store i64 -1, ptr %3, align 8
  store i32 1, ptr %10, align 4
  br label %62

56:                                               ; preds = %45
  %57 = load i64, ptr %7, align 8, !tbaa !56
  %58 = load i64, ptr %8, align 8, !tbaa !56
  %59 = add nsw i64 %58, %57
  store i64 %59, ptr %8, align 8, !tbaa !56
  br label %60

60:                                               ; preds = %56
  %61 = load i64, ptr %8, align 8, !tbaa !56
  store i64 %61, ptr %3, align 8
  store i32 1, ptr %10, align 4
  br label %62

62:                                               ; preds = %60, %55, %44, %16
  call void @llvm.lifetime.end.p0(i64 4, ptr %9) #15
  call void @llvm.lifetime.end.p0(i64 8, ptr %8) #15
  call void @llvm.lifetime.end.p0(i64 8, ptr %7) #15
  call void @llvm.lifetime.end.p0(i64 32, ptr %6) #15
  %63 = load i64, ptr %3, align 8
  ret i64 %63
}