; Function Attrs: nounwind uwtable
define dso_local range(i64 -2147483649, 2147483657) i64 @rdbSaveLongLongAsStringObject(ptr noundef %0, i64 noundef %1) local_unnamed_addr #0 {
  %3 = alloca [32 x i8], align 16
  call void @llvm.lifetime.start.p0(i64 32, ptr nonnull %3) #23
  %4 = add i64 %1, 128
  %or.cond.i = icmp ult i64 %4, 256
  %.sink30.i.sroa.gep = getelementptr inbounds nuw i8, ptr %3, i64 4
  %.sink30.i.sroa.gep33 = getelementptr inbounds nuw i8, ptr %3, i64 2
  %.sink30.i.sroa.gep34 = getelementptr inbounds nuw i8, ptr %3, i64 1
  br i1 %or.cond.i, label %5, label %6

5:                                                ; preds = %2
  store i8 -64, ptr %3, align 16, !tbaa !59
  br label %21

6:                                                ; preds = %2
  %7 = add i64 %1, 32768
  %or.cond3.i = icmp ult i64 %7, 65536
  br i1 %or.cond3.i, label %8, label %11

8:                                                ; preds = %6
  store i8 -63, ptr %3, align 16, !tbaa !59
  %9 = trunc i64 %1 to i8
  store i8 %9, ptr %.sink30.i.sroa.gep34, align 1, !tbaa !59
  %10 = lshr i64 %1, 8
  br label %21

11:                                               ; preds = %6
  %12 = add i64 %1, 2147483648
  %or.cond5.i = icmp ult i64 %12, 4294967296
  br i1 %or.cond5.i, label %13, label %48

13:                                               ; preds = %11
  store i8 -62, ptr %3, align 16, !tbaa !59
  %14 = trunc i64 %1 to i8
  store i8 %14, ptr %.sink30.i.sroa.gep34, align 1, !tbaa !59
  %15 = lshr i64 %1, 8
  %16 = trunc i64 %15 to i8
  store i8 %16, ptr %.sink30.i.sroa.gep33, align 2, !tbaa !59
  %17 = lshr i64 %1, 16
  %18 = trunc i64 %17 to i8
  %19 = getelementptr inbounds nuw i8, ptr %3, i64 3
  store i8 %18, ptr %19, align 1, !tbaa !59
  %20 = lshr i64 %1, 24
  br label %21

21:                                               ; preds = %13, %8, %5
  %.sink31.i = phi i64 [ %20, %13 ], [ %10, %8 ], [ %1, %5 ]
  %.sink30.i.sroa.phi = phi ptr [ %.sink30.i.sroa.gep, %13 ], [ %.sink30.i.sroa.gep33, %8 ], [ %.sink30.i.sroa.gep34, %5 ]
  %.0.ph.i = phi i64 [ 5, %13 ], [ 3, %8 ], [ 2, %5 ]
  %22 = trunc i64 %.sink31.i to i8
  store i8 %22, ptr %.sink30.i.sroa.phi, align 1, !tbaa !59
  %.not.i = icmp eq ptr %0, null
  br i1 %.not.i, label %rdbWriteRaw.exit, label %23

23:                                               ; preds = %21
  %24 = getelementptr inbounds nuw i8, ptr %0, i64 48
  %25 = load i64, ptr %24, align 8, !tbaa !53
  %26 = and i64 %25, 6
  %.not.i.i = icmp eq i64 %26, 0
  br i1 %.not.i.i, label %.lr.ph.i.i, label %rdbWriteRaw.exit

.lr.ph.i.i:                                       ; preds = %23
  %27 = getelementptr inbounds nuw i8, ptr %0, i64 64
  %28 = getelementptr inbounds nuw i8, ptr %0, i64 32
  %29 = getelementptr inbounds nuw i8, ptr %0, i64 8
  %30 = getelementptr inbounds nuw i8, ptr %0, i64 56
  br label %31

31:                                               ; preds = %43, %.lr.ph.i.i
  %.02539.i.i = phi i64 [ %.0.ph.i, %.lr.ph.i.i ], [ %45, %43 ]
  %.02738.i.i = phi ptr [ %3, %.lr.ph.i.i ], [ %44, %43 ]
  %32 = load i64, ptr %27, align 8, !tbaa !55
  %.not32.not.i.i = icmp eq i64 %32, 0
  %33 = call i64 @llvm.umin.i64(i64 %32, i64 %.02539.i.i)
  %34 = select i1 %.not32.not.i.i, i64 %.02539.i.i, i64 %33
  %35 = load ptr, ptr %28, align 8, !tbaa !56
  %.not33.i.i = icmp eq ptr %35, null
  br i1 %.not33.i.i, label %37, label %36

36:                                               ; preds = %31
  call void %35(ptr noundef nonnull %0, ptr noundef %.02738.i.i, i64 noundef %34) #23
  br label %37

37:                                               ; preds = %36, %31
  %38 = load ptr, ptr %29, align 8, !tbaa !57
  %39 = call i64 %38(ptr noundef nonnull %0, ptr noundef %.02738.i.i, i64 noundef %34) #23
  %40 = icmp eq i64 %39, 0
  br i1 %40, label %.thread.i.i, label %43

.thread.i.i:                                      ; preds = %37
  %41 = load i64, ptr %24, align 8, !tbaa !53
  %42 = or i64 %41, 2
  store i64 %42, ptr %24, align 8, !tbaa !53
  br label %rdbWriteRaw.exit

43:                                               ; preds = %37
  %44 = getelementptr inbounds nuw i8, ptr %.02738.i.i, i64 %34
  %45 = sub i64 %.02539.i.i, %34
  %46 = load i64, ptr %30, align 8, !tbaa !58
  %47 = add i64 %46, %34
  store i64 %47, ptr %30, align 8, !tbaa !58
  %.not31.i.i = icmp eq i64 %45, 0
  br i1 %.not31.i.i, label %rdbWriteRaw.exit, label %31

48:                                               ; preds = %11
  %49 = call i32 @ll2string(ptr noundef nonnull %3, i64 noundef 32, i64 noundef %1) #23
  %50 = icmp slt i32 %49, 32
  br i1 %50, label %52, label %51, !prof !64

51:                                               ; preds = %48
  call void @_serverAssert(ptr noundef nonnull @.str.11, ptr noundef nonnull @.str.12, i32 noundef 481) #23
  call void @abort() #26
  unreachable

52:                                               ; preds = %48
  %53 = sext i32 %49 to i64
  %54 = call i32 @rdbSaveLen(ptr noundef %0, i64 noundef %53)
  %55 = sext i32 %54 to i64
  %56 = icmp eq i32 %54, -1
  br i1 %56, label %rdbWriteRaw.exit, label %57

57:                                               ; preds = %52
  %.not.i20 = icmp eq ptr %0, null
  br i1 %.not.i20, label %rdbWriteRaw.exit32, label %58

58:                                               ; preds = %57
  %59 = getelementptr inbounds nuw i8, ptr %0, i64 48
  %60 = load i64, ptr %59, align 8, !tbaa !53
  %61 = and i64 %60, 6
  %.not.i.i21 = icmp eq i64 %61, 0
  br i1 %.not.i.i21, label %.preheader.i.i23, label %rdbWriteRaw.exit32.thread

.preheader.i.i23:                                 ; preds = %58
  %.not3137.i.i24 = icmp eq i32 %49, 0
  br i1 %.not3137.i.i24, label %rdbWriteRaw.exit, label %.lr.ph.i.i25

.lr.ph.i.i25:                                     ; preds = %.preheader.i.i23
  %62 = getelementptr inbounds nuw i8, ptr %0, i64 64
  %63 = getelementptr inbounds nuw i8, ptr %0, i64 32
  %64 = getelementptr inbounds nuw i8, ptr %0, i64 8
  %65 = getelementptr inbounds nuw i8, ptr %0, i64 56
  br label %66

66:                                               ; preds = %78, %.lr.ph.i.i25
  %.02539.i.i26 = phi i64 [ %53, %.lr.ph.i.i25 ], [ %80, %78 ]
  %.02738.i.i27 = phi ptr [ %3, %.lr.ph.i.i25 ], [ %79, %78 ]
  %67 = load i64, ptr %62, align 8, !tbaa !55
  %.not32.not.i.i28 = icmp eq i64 %67, 0
  %68 = call i64 @llvm.umin.i64(i64 %67, i64 %.02539.i.i26)
  %69 = select i1 %.not32.not.i.i28, i64 %.02539.i.i26, i64 %68
  %70 = load ptr, ptr %63, align 8, !tbaa !56
  %.not33.i.i29 = icmp eq ptr %70, null
  br i1 %.not33.i.i29, label %72, label %71

71:                                               ; preds = %66
  call void %70(ptr noundef nonnull %0, ptr noundef %.02738.i.i27, i64 noundef %69) #23
  br label %72

72:                                               ; preds = %71, %66
  %73 = load ptr, ptr %64, align 8, !tbaa !57
  %74 = call i64 %73(ptr noundef nonnull %0, ptr noundef %.02738.i.i27, i64 noundef %69) #23
  %75 = icmp eq i64 %74, 0
  br i1 %75, label %.thread.i.i31, label %78

.thread.i.i31:                                    ; preds = %72
  %76 = load i64, ptr %59, align 8, !tbaa !53
  %77 = or i64 %76, 2
  store i64 %77, ptr %59, align 8, !tbaa !53
  br label %rdbWriteRaw.exit32.thread

78:                                               ; preds = %72
  %79 = getelementptr inbounds nuw i8, ptr %.02738.i.i27, i64 %69
  %80 = sub i64 %.02539.i.i26, %69
  %81 = load i64, ptr %65, align 8, !tbaa !58
  %82 = add i64 %81, %69
  store i64 %82, ptr %65, align 8, !tbaa !58
  %.not31.i.i30 = icmp eq i64 %80, 0
  br i1 %.not31.i.i30, label %rdbWriteRaw.exit32, label %66

rdbWriteRaw.exit32:                               ; preds = %78, %57
  %83 = icmp eq i32 %49, -1
  %84 = add nsw i64 %55, %53
  br i1 %83, label %rdbWriteRaw.exit32.thread, label %rdbWriteRaw.exit

rdbWriteRaw.exit32.thread:                        ; preds = %.thread.i.i31, %58, %rdbWriteRaw.exit32
  br label %rdbWriteRaw.exit

rdbWriteRaw.exit:                                 ; preds = %43, %.preheader.i.i23, %rdbWriteRaw.exit32.thread, %rdbWriteRaw.exit32, %.thread.i.i, %23, %21, %52
  %.0 = phi i64 [ -1, %52 ], [ %.0.ph.i, %21 ], [ -1, %23 ], [ -1, %.thread.i.i ], [ -1, %rdbWriteRaw.exit32.thread ], [ %84, %rdbWriteRaw.exit32 ], [ %55, %.preheader.i.i23 ], [ %.0.ph.i, %43 ]
  call void @llvm.lifetime.end.p0(i64 32, ptr nonnull %3) #23
  ret i64 %.0
}